target datalayout = "e-m:e-p270:32:32-p271:32:32-p272:64:64-i64:64-i128:128-f80:128-n8:16:32:64-S128"
target triple = "x86_64-pc-linux-gnu"

%struct.CLAMFI = type { ptr, ptr, ptr, ptr, ptr, i32, i32, i32, i32, i32, i32, i32, i32, i32, i32, i32, [1424 x i8] }

@multircpt = dso_local global i32 1, align 4
@FailAction = internal global i32 0, align 4
@.str.56 = private unnamed_addr constant [44 x i8] c"Failed to allocate array for new recipient\0A\00", align 1
@.str.57 = private unnamed_addr constant [44 x i8] c"Failed to allocate space for new recipient\0A\00", align 1

; Function Attrs: nounwind uwtable
define dso_local i32 @clamfi_envrcpt(ptr noundef %0, ptr noundef %1) #0 {
  %3 = alloca i32, align 4
  %4 = alloca ptr, align 8
  %5 = alloca ptr, align 8
  %6 = alloca ptr, align 8
  %7 = alloca ptr, align 8
  %8 = alloca i32, align 4
  store ptr %0, ptr %4, align 8
  store ptr %1, ptr %5, align 8
  %9 = load ptr, ptr %4, align 8
  %10 = call ptr @smfi_getpriv(ptr noundef %9)
  store ptr %10, ptr %6, align 8
  %11 = icmp ne ptr %10, null
  br i1 %11, label %13, label %12

12:                                               ; preds = %2
  store i32 0, ptr %3, align 4
  br label %76

13:                                               ; preds = %2
  %14 = load ptr, ptr %6, align 8
  %15 = getelementptr inbounds %struct.CLAMFI, ptr %14, i32 0, i32 10
  %16 = load i32, ptr %15, align 4
  %17 = icmp ne i32 %16, 0
  br i1 %17, label %18, label %27

18:                                               ; preds = %13
  %19 = load ptr, ptr %5, align 8
  %20 = getelementptr inbounds ptr, ptr %19, i64 0
  %21 = load ptr, ptr %20, align 8
  %22 = call i32 @allowed(ptr noundef %21, i32 noundef 0)
  %23 = load ptr, ptr %6, align 8
  %24 = getelementptr inbounds %struct.CLAMFI, ptr %23, i32 0, i32 10
  %25 = load i32, ptr %24, align 4
  %26 = and i32 %25, %22
  store i32 %26, ptr %24, align 4
  br label %27

27:                                               ; preds = %18, %13
  %28 = load i32, ptr @multircpt, align 4
  %29 = icmp ne i32 %28, 0
  br i1 %29, label %30, label %75

30:                                               ; preds = %27
  %31 = load ptr, ptr %6, align 8
  %32 = getelementptr inbounds %struct.CLAMFI, ptr %31, i32 0, i32 4
  %33 = load ptr, ptr %32, align 8
  %34 = load ptr, ptr %6, align 8
  %35 = getelementptr inbounds %struct.CLAMFI, ptr %34, i32 0, i32 14
  %36 = load i32, ptr %35, align 4
  %37 = add i32 %36, 1
  %38 = zext i32 %37 to i64
  %39 = mul i64 %38, 8
  %40 = call ptr @realloc(ptr noundef %33, i64 noundef %39) #14
  store ptr %40, ptr %7, align 8
  %41 = load ptr, ptr %7, align 8
  %42 = icmp ne ptr %41, null
  br i1 %42, label %49, label %43

43:                                               ; preds = %30
  %44 = call i32 (i32, ptr, ...) @logg(i32 noundef 5, ptr noundef @.str.56)
  %45 = load ptr, ptr %4, align 8
  %46 = load ptr, ptr %6, align 8
  call void @nullify(ptr noundef %45, ptr noundef %46, i32 noundef 4)
  %47 = load ptr, ptr %6, align 8
  call void @free(ptr noundef %47) #9
  %48 = load i32, ptr @FailAction, align 4
  store i32 %48, ptr %3, align 4
  br label %76

49:                                               ; preds = %30
  %50 = load ptr, ptr %7, align 8
  %51 = load ptr, ptr %6, align 8
  %52 = getelementptr inbounds %struct.CLAMFI, ptr %51, i32 0, i32 4
  store ptr %50, ptr %52, align 8
  %53 = load ptr, ptr %6, align 8
  %54 = getelementptr inbounds %struct.CLAMFI, ptr %53, i32 0, i32 14
  %55 = load i32, ptr %54, align 4
  %56 = add i32 %55, 1
  store i32 %56, ptr %54, align 4
  store i32 %55, ptr %8, align 4
  %57 = load ptr, ptr %5, align 8
  %58 = getelementptr inbounds ptr, ptr %57, i64 0
  %59 = load ptr, ptr %58, align 8
  %60 = call noalias ptr @strdup(ptr noundef %59) #9
  %61 = load ptr, ptr %6, align 8
  %62 = getelementptr inbounds %struct.CLAMFI, ptr %61, i32 0, i32 4
  %63 = load ptr, ptr %62, align 8
  %64 = load i32, ptr %8, align 4
  %65 = zext i32 %64 to i64
  %66 = getelementptr inbounds ptr, ptr %63, i64 %65
  store ptr %60, ptr %66, align 8
  %67 = icmp ne ptr %60, null
  br i1 %67, label %74, label %68

68:                                               ; preds = %49
  %69 = call i32 (i32, ptr, ...) @logg(i32 noundef 5, ptr noundef @.str.57)
  %70 = load ptr, ptr %4, align 8
  %71 = load ptr, ptr %6, align 8
  call void @nullify(ptr noundef %70, ptr noundef %71, i32 noundef 4)
  %72 = load ptr, ptr %6, align 8
  call void @free(ptr noundef %72) #9
  %73 = load i32, ptr @FailAction, align 4
  store i32 %73, ptr %3, align 4
  br label %76

74:                                               ; preds = %49
  br label %75

75:                                               ; preds = %74, %27
  store i32 0, ptr %3, align 4
  br label %76

76:                                               ; preds = %75, %68, %43, %12
  %77 = load i32, ptr %3, align 4
  ret i32 %77
}