; Function Attrs: nounwind uwtable
define dso_local i32 @clamfi_envrcpt(ptr noundef %0, ptr nocapture noundef readonly %1) local_unnamed_addr #0 {
  %3 = tail call ptr @smfi_getpriv(ptr noundef %0) #17
  %.not = icmp eq ptr %3, null
  br i1 %.not, label %32, label %4

4:                                                ; preds = %2
  %5 = getelementptr inbounds i8, ptr %3, i64 60
  %6 = load i32, ptr %5, align 4
  %.not21 = icmp eq i32 %6, 0
  br i1 %.not21, label %12, label %7

7:                                                ; preds = %4
  %8 = load ptr, ptr %1, align 8
  %9 = tail call i32 @allowed(ptr noundef %8, i32 noundef 0) #17
  %10 = load i32, ptr %5, align 4
  %11 = and i32 %10, %9
  store i32 %11, ptr %5, align 4
  br label %12

12:                                               ; preds = %7, %4
  %13 = load i32, ptr @multircpt, align 4
  %.not22 = icmp eq i32 %13, 0
  br i1 %.not22, label %32, label %14

14:                                               ; preds = %12
  %15 = getelementptr inbounds i8, ptr %3, i64 32
  %16 = load ptr, ptr %15, align 8
  %17 = getelementptr inbounds i8, ptr %3, i64 76
  %18 = load i32, ptr %17, align 4
  %19 = add i32 %18, 1
  %20 = zext i32 %19 to i64
  %21 = shl nuw nsw i64 %20, 3
  %22 = tail call ptr @realloc(ptr noundef %16, i64 noundef %21) #22
  %.not23 = icmp eq ptr %22, null
  br i1 %.not23, label %.sink.split, label %23

23:                                               ; preds = %14
  store ptr %22, ptr %15, align 8
  %24 = load i32, ptr %17, align 4
  %25 = add i32 %24, 1
  store i32 %25, ptr %17, align 4
  %26 = load ptr, ptr %1, align 8
  %27 = tail call noalias ptr @strdup(ptr noundef %26) #17
  %28 = zext i32 %24 to i64
  %29 = getelementptr inbounds ptr, ptr %22, i64 %28
  store ptr %27, ptr %29, align 8
  %.not24 = icmp eq ptr %27, null
  br i1 %.not24, label %.sink.split, label %32

.sink.split:                                      ; preds = %23, %14
  %.str.57.sink = phi ptr [ @.str.56, %14 ], [ @.str.57, %23 ]
  %30 = tail call i32 (i32, ptr, ...) @logg(i32 noundef 5, ptr noundef nonnull %.str.57.sink) #17
  tail call fastcc void @nullify(ptr noundef %0, ptr noundef nonnull %3, i32 noundef 4)
  tail call void @free(ptr noundef nonnull %3) #17
  %31 = load i32, ptr @FailAction, align 4
  br label %32

32:                                               ; preds = %.sink.split, %12, %23, %2
  %.0 = phi i32 [ 0, %2 ], [ 0, %23 ], [ 0, %12 ], [ %31, %.sink.split ]
  ret i32 %.0
}